target datalayout = "e-m:e-p270:32:32-p271:32:32-p272:64:64-i64:64-i128:128-f80:128-n8:16:32:64-S128"
target triple = "x86_64-pc-linux-gnu"

%"class.cvc5::internal::FloatingPointSize" = type { i32, i32 }

; Function Attrs: mustprogress nounwind uwtable
define linkonce_odr hidden noundef i32 @_ZN6symfpu15bitsToRepresentIjEET_S1_(i32 noundef %0) #5 comdat {
  %2 = alloca i32, align 4
  %3 = alloca i32, align 4
  %4 = alloca i32, align 4
  store i32 %0, ptr %2, align 4, !tbaa !8
  call void @llvm.lifetime.start.p0(i64 4, ptr %3) #3
  store i32 0, ptr %3, align 4, !tbaa !8
  call void @llvm.lifetime.start.p0(i64 4, ptr %4) #3
  %5 = load i32, ptr %2, align 4, !tbaa !8
  store i32 %5, ptr %4, align 4, !tbaa !8
  br label %6

6:                                                ; preds = %9, %1
  %7 = load i32, ptr %4, align 4, !tbaa !8
  %8 = icmp ne i32 %7, 0
  br i1 %8, label %9, label %14

9:                                                ; preds = %6
  %10 = load i32, ptr %3, align 4, !tbaa !8
  %11 = add i32 %10, 1
  store i32 %11, ptr %3, align 4, !tbaa !8
  %12 = load i32, ptr %4, align 4, !tbaa !8
  %13 = lshr i32 %12, 1
  store i32 %13, ptr %4, align 4, !tbaa !8
  br label %6, !llvm.loop !61

14:                                               ; preds = %6
  %15 = load i32, ptr %3, align 4, !tbaa !8
  call void @llvm.lifetime.end.p0(i64 4, ptr %4) #3
  call void @llvm.lifetime.end.p0(i64 4, ptr %3) #3
  ret i32 %15
}

; Function Attrs: inlinehint mustprogress nounwind uwtable
define linkonce_odr hidden noundef i32 @_ZNK4cvc58internal17FloatingPointSize16significandWidthEv(ptr noundef nonnull align 4 dereferenceable(8) %0) #8 comdat align 2 {
  %2 = alloca ptr, align 8
  store ptr %0, ptr %2, align 8, !tbaa !3
  %3 = load ptr, ptr %2, align 8
  %4 = getelementptr inbounds nuw %"class.cvc5::internal::FloatingPointSize", ptr %3, i32 0, i32 1
  %5 = load i32, ptr %4, align 4, !tbaa !41
  ret i32 %5
}

; Function Attrs: inlinehint mustprogress nounwind uwtable
define linkonce_odr hidden noundef i32 @_ZNK4cvc58internal17FloatingPointSize13exponentWidthEv(ptr noundef nonnull align 4 dereferenceable(8) %0) #8 comdat align 2 {
  %2 = alloca ptr, align 8
  store ptr %0, ptr %2, align 8, !tbaa !3
  %3 = load ptr, ptr %2, align 8
  %4 = getelementptr inbounds nuw %"class.cvc5::internal::FloatingPointSize", ptr %3, i32 0, i32 0
  %5 = load i32, ptr %4, align 4, !tbaa !39
  ret i32 %5
}

; Function Attrs: mustprogress uwtable
define linkonce_odr hidden noundef i32 @_ZN6symfpu13unpackedFloatIN4cvc58internal13symfpuLiteral6traitsEE13exponentWidthERKNS2_17FloatingPointSizeE(ptr noundef nonnull align 4 dereferenceable(8) %0) #4 comdat align 2 {
  %2 = alloca i32, align 4
  %3 = alloca ptr, align 8
  %4 = alloca i32, align 4
  %5 = alloca i32, align 4
  %6 = alloca i32, align 4
  %7 = alloca i32, align 4
  store ptr %0, ptr %3, align 8, !tbaa !3
  call void @llvm.lifetime.start.p0(i64 4, ptr %4) #3
  %8 = load ptr, ptr %3, align 8, !tbaa !3
  %9 = call noundef i32 @_ZNK4cvc58internal17FloatingPointSize13exponentWidthEv(ptr noundef nonnull align 4 dereferenceable(8) %8)
  store i32 %9, ptr %4, align 4, !tbaa !8
  call void @llvm.lifetime.start.p0(i64 4, ptr %5) #3
  %10 = load ptr, ptr %3, align 8, !tbaa !3
  %11 = call noundef i32 @_ZNK4cvc58internal17FloatingPointSize16significandWidthEv(ptr noundef nonnull align 4 dereferenceable(8) %10)
  store i32 %11, ptr %5, align 4, !tbaa !8
  %12 = load i32, ptr %5, align 4, !tbaa !8
  %13 = icmp ule i32 %12, 3
  br i1 %13, label %14, label %16

14:                                               ; preds = %1
  %15 = load i32, ptr %4, align 4, !tbaa !8
  store i32 %15, ptr %2, align 4
  store i32 1, ptr %6, align 4
  br label %38

16:                                               ; preds = %1
  call void @llvm.lifetime.start.p0(i64 4, ptr %7) #3
  %17 = load ptr, ptr %3, align 8, !tbaa !3
  %18 = call noundef i32 @_ZNK4cvc58internal17FloatingPointSize16significandWidthEv(ptr noundef nonnull align 4 dereferenceable(8) %17)
  %19 = sub i32 %18, 3
  %20 = call noundef i32 @_ZN6symfpu15bitsToRepresentIjEET_S1_(i32 noundef %19)
  store i32 %20, ptr %7, align 4, !tbaa !8
  %21 = load i32, ptr %7, align 4, !tbaa !8
  %22 = load i32, ptr %4, align 4, !tbaa !8
  %23 = sub i32 %22, 1
  %24 = icmp ult i32 %21, %23
  br i1 %24, label %25, label %28

25:                                               ; preds = %16
  %26 = load i32, ptr %4, align 4, !tbaa !8
  %27 = add i32 %26, 1
  store i32 %27, ptr %2, align 4
  store i32 1, ptr %6, align 4
  br label %37

28:                                               ; preds = %16
  %29 = load i32, ptr %4, align 4, !tbaa !8
  %30 = sub i32 %29, 1
  %31 = shl i32 1, %30
  %32 = load i32, ptr %5, align 4, !tbaa !8
  %33 = add i32 %31, %32
  %34 = sub i32 %33, 3
  %35 = call noundef i32 @_ZN6symfpu15bitsToRepresentIjEET_S1_(i32 noundef %34)
  %36 = add i32 %35, 1
  store i32 %36, ptr %2, align 4
  store i32 1, ptr %6, align 4
  br label %37

37:                                               ; preds = %28, %25
  call void @llvm.lifetime.end.p0(i64 4, ptr %7) #3
  br label %38

38:                                               ; preds = %37, %14
  call void @llvm.lifetime.end.p0(i64 4, ptr %5) #3
  call void @llvm.lifetime.end.p0(i64 4, ptr %4) #3
  %39 = load i32, ptr %2, align 4
  ret i32 %39
}

; Function Attrs: mustprogress uwtable
define hidden noundef i32 @_ZN4cvc58internal20FloatingPointLiteral24getUnpackedExponentWidthERNS0_17FloatingPointSizeE(ptr noundef nonnull align 4 dereferenceable(8) %0) #4 align 2 {
  %2 = alloca ptr, align 8
  store ptr %0, ptr %2, align 8, !tbaa !3
  %3 = load ptr, ptr %2, align 8, !tbaa !3
  %4 = call noundef i32 @_ZN6symfpu13unpackedFloatIN4cvc58internal13symfpuLiteral6traitsEE13exponentWidthERKNS2_17FloatingPointSizeE(ptr noundef nonnull align 4 dereferenceable(8) %3)
  ret i32 %4
}