; Function Attrs: mustprogress nofree norecurse nosync nounwind willreturn memory(argmem: read) uwtable
define hidden noundef i32 @_ZN4cvc58internal20FloatingPointLiteral24getUnpackedExponentWidthERNS0_17FloatingPointSizeE(ptr noundef nonnull readonly align 4 captures(none) dereferenceable(8) %0) local_unnamed_addr #3 align 2 {
  %2 = load i32, ptr %0, align 4, !tbaa !3
  %3 = getelementptr inbounds nuw i8, ptr %0, i64 4
  %4 = load i32, ptr %3, align 4, !tbaa !8
  %5 = icmp ult i32 %4, 4
  br i1 %5, label %_ZN6symfpu13unpackedFloatIN4cvc58internal13symfpuLiteral6traitsEE13exponentWidthERKNS2_17FloatingPointSizeE.exit, label %6

6:                                                ; preds = %1
  %7 = add i32 %4, -3
  %8 = tail call range(i32 0, 33) i32 @llvm.ctlz.i32(i32 %7, i1 true)
  %9 = sub nuw nsw i32 32, %8
  %10 = add i32 %2, -1
  %11 = icmp ult i32 %9, %10
  br i1 %11, label %17, label %12

12:                                               ; preds = %6
  %13 = shl nuw i32 1, %10
  %14 = add i32 %7, %13
  %.not6.i12.i = icmp eq i32 %14, 0
  %15 = tail call range(i32 0, 33) i32 @llvm.ctlz.i32(i32 %14, i1 true)
  %16 = sub nuw nsw i32 32, %15
  %.05.lcssa.i13.i = select i1 %.not6.i12.i, i32 0, i32 %16
  br label %17

17:                                               ; preds = %12, %6
  %.1.in.i = phi i32 [ %.05.lcssa.i13.i, %12 ], [ %2, %6 ]
  %.1.i = add i32 %.1.in.i, 1
  br label %_ZN6symfpu13unpackedFloatIN4cvc58internal13symfpuLiteral6traitsEE13exponentWidthERKNS2_17FloatingPointSizeE.exit

_ZN6symfpu13unpackedFloatIN4cvc58internal13symfpuLiteral6traitsEE13exponentWidthERKNS2_17FloatingPointSizeE.exit: ; preds = %1, %17
  %.0.i = phi i32 [ %.1.i, %17 ], [ %2, %1 ]
  ret i32 %.0.i
}